(lp0
(dp1
S'age'
p2
S'20'
p3
sS'medal'
p4
S'4'
p5
sS'team_id'
p6
I1
sS'athlete_name'
p7
S'Ivan'
p8
sS'athlete_id'
p9
I1
sa(dp10
S'age'
p11
S'20'
p12
sS'team_id'
p13
I1
sS'medal'
p14
S'5'
p15
sS'athlete_id'
p16
I2
sS'athlete_name'
p17
S'Kolya'
p18
sa(dp19
S'athlete_id'
p20
I3
sS'team_id'
p21
I2
sS'medal'
p22
S'4'
p23
sS'age'
p24
S'20'
p25
sS'athlete_name'
p26
S'TT'
p27
sa.