Microsoft (R) Macro Assembler Version 5.00                  3/30/16 11:26:36
                                                             Page     1-1


				Ôªø;–ó–∞–±–µ–∑–ø–µ—á–∏—Ç–∏ –≤–∏–≤–µ–¥–µ–Ω–Ω—è –
				Ω–∞ –µ–∫—Ä–∞–Ω –≤ —à–µ—Å—Ç–∞–¥—Ü—è—Ç–∏—Ä—ñ—á–Ω–
				æ–º—É 
ln.ASM(1): warning A4001: Extra characters on line
				;—Ñ–æ—Ä–º–∞—Ç—ñ –≤–º—ñ—Å—Ç—É —Ä–µ–≥—ñ—Å—Ç—Ä—ñ–≤
				 ax, bx, cx —ñ dx, –æ–¥–µ—Ä–∂—É–≤–∞–Ω–∏—Ö –ø—Ä–
				æ—Ü–µ–¥—É—Ä–æ—é  
				;–∫–æ—Ä–∏—Å—Ç—É–≤–∞—á–∞ –¥–ª—è –æ–±—Ä–æ–±–∫–∏ –
				ø–æ–¥—ñ–π –≤—ñ–¥ –º–∏—à–∫–∏. –£–º–æ–≤–æ—é –≤–∏–
				∫–ª–∏–∫—É –ø—Ä–æ—Ü–µ–¥—É—Ä–∏  
				;–ø—Ä–∏–π–Ω—è—Ç–∏ –±—É–¥—å-—è–∫–µ –ø–µ—Ä–µ–º—ñ—
				â–µ–Ω–Ω—è –º–∏—à–∫–∏.  
				;–û—Å–Ω–æ–≤–Ω–∞ –ø—Ä–æ–≥—Ä–∞–º–∞ —Ä–µ–∞–ª—ñ–∑—É
				—î—Ç—å—Å—è –∑–≥—ñ–¥–Ω–æ –∑ –ü—Ä–∏–∫–ª–∞–¥–æ–º 1
				 
				.386 
 0000				data segment use16 
 0000  0000			sax		dw	0 
 0002  0000			scx		dw  0		  
 0004				data ends 
				 
				assume ds:data, cs:code 
				 
 0000				code segment use16 
 0000				prmaus 	proc 		far 
				; –∑–±–µ—Ä–µ–∂–µ–Ω–Ω—è –≤–º—ñ—Å—Ç—É —Ä–µ–≥—ñ—Å—
				Ç—Ä—ñ–≤ ds, es —Ç–∞  –†–ó–ü 
 0000  57				push		di     
 0001  06				push 		es 
 0002  1E				push 		ds 
 0003  60				pusha 
				;–∑–∞–≤–∞–Ω—Ç–∞–∂–µ–Ω–Ω—è  —Å–µ–≥–º–µ–Ω—Ç–Ω–∏—Ö
				 —Ä–µ–≥—ñ—Å—Ç—Ä—ñ–≤ ds —Ç–∞  es 
 0004  68 B800				push		0b800h ; —Å–µ–≥–º–µ–Ω—Ç
				–Ω–∞ –∞–¥—Ä–µ—Å–∞ –≤—ñ–¥–µ–æ–±—É—Ñ–µ—Ä–∞ 
 0007  07				pop 		es 
 0008  68 ---- R			push 		data 
 000B  1F				pop 		ds 
				 
				;–æ—Å–Ω–æ–≤–Ω–µ —Ç—ñ–ª–æ –ø—Ä–æ—Ü–µ–¥—É—Ä–∏: 
					 
 000C  A3 0000 R			mov sax, ax 
 000F  89 0E 0002 R			mov scx, cx ;—Å–æ—Ö—Ä–∞–Ω–∏–º —Ä–µ–≥–∏—
				Å—Ç—Ä —Å—Ö, —Ç–∞–∫ –∫–∞–∫ —Å—Ö –±—É–¥–µ—Ç –∏—Å–
				ø–æ–ª—å–∑–æ–≤–∞—Ç—å—Å—è –∫–∞–∫ —Å—á–µ—Ç—á–∏–∫
					 
				;–í–∏–≤–µ–¥–µ–Ω–Ω—è AX 
 0013  B1 00				mov cl, 0 
 0015  BF 0010				mov di, 16 
 0018					@aloop: 
 0018  A1 0000 R			mov ax, sax ;–∑–∞–≥—Ä—É–∑–∏–º –≤ ax –∏–
				∑–Ω–∞—á–∞–ª—å–Ω–æ–µ —Å–æ–¥–µ—Ä–∂–∏–º–æ–µ –∞—Ö 
 001B  D3 E8				shr ax, cl	;–µ–≥–æ –≤–ø—Ä–∞–≤–æ, —
				á—Ç–æ–±—ã –≤—ã–¥–µ–ª–∏—Ç—å —Å–ª–µ–¥—É—é—â–∏–µ 4
Microsoft (R) Macro Assembler Version 5.00                  3/30/16 11:26:36
                                                             Page     1-2


				 –±–∏—Ç–∞ 
 001D  25 000F				and ax, 1111b ;–≤–æ–∑—å–º–µ–º 4 –±–∏—Ç–
				∞ –∏—Å—Ö–æ–¥–Ω–æ–≥–æ —á–∏—Å–ª–∞ 
					 
					;–Ω–∞–π–¥–µ–º 16-—Ä–∏—á–Ω—É—é —Ü–∏—Ñ—Ä—
				É, –∫–æ—Ç–æ—Ä–∞—è —Å–æ–æ—Ç–≤–µ—Ç—Å—Ç–≤—É–µ—Ç —ç
				—Ç–∏–º 4 –±–∏—Ç–∞–º 
 0020  3D 0009					cmp ax, 9  
 0023  0F 8E 002D R				jle @d ; –µ—Å–ª–∏ —á–∏—Å–ª–æ <=
				 9, —Ç–æ —ç—Ç–æ –¥–µ—Å—è—Ç–∏—á–Ω–∞—è —Ü–∏—Ñ—Ä–∞
				 
 0027  05 0037					add ax, 55 ; –∏–Ω–∞—á–µ - –±—É–
				∫–≤–∞ –æ—Ç a –¥–æ f. –ö–æ–¥ a –≤ ASCII - 55 
 002A  EB 04 90					jmp @out 
 002D						@d: 
 002D  05 0030					add ax, 48 ; –¥–µ—Å—è—Ç–∏—á–Ω—ã
				–µ —Ü–∏—Ñ—Ä—ã –Ω–∞—á–∏–Ω–∞—é—Ç—Å—è —Å 48 –≤ ASC
				II 
						 
 0030					@out: 
 0030  26: 88 05			mov es:[di], al ;–≤—ã–≤–µ–¥–µ–º —ç—Ç—É 
				—Ü–∏—Ñ—Ä—É 
 0033  83 EF 02				sub di, 2 
 0036  80 C1 04				add cl, 4 
 0039  80 F9 10				cmp cl, 16 
 003C  75 DA				jne @aloop 
					 
				;–í–∏–≤–µ–¥–µ–Ω–Ω—è BX 
 003E  B1 00				mov cl, 0 
 0040  BF 00B0				mov di, (16+160) 
 0043					@bloop: 
 0043  8B C3				mov ax, bx 
 0045  D3 E8				shr ax, cl 
 0047  25 000F				and ax, 1111b ;–≤–æ–∑—å–º–µ–º 4 –±–∏—Ç–
				∞ –∏—Å—Ö–æ–¥–Ω–æ–≥–æ —á–∏—Å–ª–∞ 
					 
					;–Ω–∞–π–¥–µ–º 16-—Ä–∏—á–Ω—É—é —Ü–∏—Ñ—Ä—
				É, –∫–æ—Ç–æ—Ä–∞—è —Å–æ–æ—Ç–≤–µ—Ç—Å—Ç–≤—É–µ—Ç —ç
				—Ç–∏–º 4 –±–∏—Ç–∞–º 
 004A  3D 0009					cmp ax, 9  
 004D  0F 8E 0057 R				jle @bd ; –µ—Å–ª–∏ —á–∏—Å–ª–æ <
				= 9, —Ç–æ —ç—Ç–æ –¥–µ—Å—è—Ç–∏—á–Ω–∞—è —Ü–∏—Ñ—Ä–
				∞ 
 0051  05 0037					add ax, 55 ; –∏–Ω–∞—á–µ - –±—É–
				∫–≤–∞ –æ—Ç a –¥–æ f. –ö–æ–¥ a –≤ ASCII - 55 
 0054  EB 04 90					jmp @bout 
 0057						@bd: 
 0057  05 0030					add ax, 48 ; –¥–µ—Å—è—Ç–∏—á–Ω—ã
				–µ —Ü–∏—Ñ—Ä—ã –Ω–∞—á–∏–Ω–∞—é—Ç—Å—è —Å 48 –≤ ASC
				II 
						 
 005A					@bout: 
 005A  26: 88 05			mov es:[di], al ;–≤—ã–≤–µ–¥–µ–º —ç—Ç—É 
				—Ü–∏—Ñ—Ä—É 
Microsoft (R) Macro Assembler Version 5.00                  3/30/16 11:26:36
                                                             Page     1-3


 005D  83 EF 02				sub di, 2 
 0060  80 C1 04				add cl, 4 
 0063  80 F9 10				cmp cl, 16 
 0066  75 DB				jne @bloop 
					 
				;–í–∏–≤–µ–¥–µ–Ω–Ω—è CX 
 0068  B1 00				mov cl, 0 
 006A  BF 0150				mov di, (16+160*2) 
 006D					@cloop: 
 006D  A1 0002 R			mov ax, scx 
 0070  D3 E8				shr ax, cl 
 0072  25 000F				and ax, 1111b ;–≤–æ–∑—å–º–µ–º 4 –±–∏—Ç–
				∞ –∏—Å—Ö–æ–¥–Ω–æ–≥–æ —á–∏—Å–ª–∞ 
					 
					;–Ω–∞–π–¥–µ–º 16-—Ä–∏—á–Ω—É—é —Ü–∏—Ñ—Ä—
				É, –∫–æ—Ç–æ—Ä–∞—è —Å–æ–æ—Ç–≤–µ—Ç—Å—Ç–≤—É–µ—Ç —ç
				—Ç–∏–º 4 –±–∏—Ç–∞–º 
 0075  3D 0009					cmp ax, 9  
 0078  0F 8E 0082 R				jle @cd ; –µ—Å–ª–∏ —á–∏—Å–ª–æ <
				= 9, —Ç–æ —ç—Ç–æ –¥–µ—Å—è—Ç–∏—á–Ω–∞—è —Ü–∏—Ñ—Ä–
				∞ 
 007C  05 0037					add ax, 55 ; –∏–Ω–∞—á–µ - –±—É–
				∫–≤–∞ –æ—Ç a –¥–æ f. –ö–æ–¥ a –≤ ASCII - 55 
 007F  EB 04 90					jmp @cout 
 0082						@cd: 
 0082  05 0030					add ax, 48 ; –¥–µ—Å—è—Ç–∏—á–Ω—ã
				–µ —Ü–∏—Ñ—Ä—ã –Ω–∞—á–∏–Ω–∞—é—Ç—Å—è —Å 48 –≤ ASC
				II 
						 
 0085					@cout: 
 0085  26: 88 05			mov es:[di], al ;–≤—ã–≤–µ–¥–µ–º —ç—Ç—É 
				—Ü–∏—Ñ—Ä—É 
 0088  83 EF 02				sub di, 2 
 008B  80 C1 04				add cl, 4 
 008E  80 F9 10				cmp cl, 16 
 0091  75 DA				jne @cloop 
				 
				;–í–∏–≤–µ–¥–µ–Ω–Ω—è DX 
 0093  B1 00				mov cl, 0 
 0095  BF 01F0				mov di, (16+160*3) 
 0098					@dloop: 
 0098  8B C2				mov ax, dx 
 009A  D3 E8				shr ax, cl 
 009C  25 000F				and ax, 1111b ;–≤–æ–∑—å–º–µ–º 4 –±–∏—Ç–
				∞ –∏—Å—Ö–æ–¥–Ω–æ–≥–æ —á–∏—Å–ª–∞ 
					 
					;–Ω–∞–π–¥–µ–º 16-—Ä–∏—á–Ω—É—é —Ü–∏—Ñ—Ä—
				É, –∫–æ—Ç–æ—Ä–∞—è —Å–æ–æ—Ç–≤–µ—Ç—Å—Ç–≤—É–µ—Ç —ç
				—Ç–∏–º 4 –±–∏—Ç–∞–º 
 009F  3D 0009					cmp ax, 9  
 00A2  0F 8E 00AC R				jle @dd ; –µ—Å–ª–∏ —á–∏—Å–ª–æ <
				= 9, —Ç–æ —ç—Ç–æ –¥–µ—Å—è—Ç–∏—á–Ω–∞—è —Ü–∏—Ñ—Ä–
				∞ 
 00A6  05 0037					add ax, 55 ; –∏–Ω–∞—á–µ - –±—É–
Microsoft (R) Macro Assembler Version 5.00                  3/30/16 11:26:36
                                                             Page     1-4


				∫–≤–∞ –æ—Ç a –¥–æ f. –ö–æ–¥ a –≤ ASCII - 55 
 00A9  EB 04 90					jmp @dout 
 00AC						@dd: 
 00AC  05 0030					add ax, 48 ; –¥–µ—Å—è—Ç–∏—á–Ω—ã
				–µ —Ü–∏—Ñ—Ä—ã –Ω–∞—á–∏–Ω–∞—é—Ç—Å—è —Å 48 –≤ ASC
				II 
						 
 00AF					@dout: 
 00AF  B4 4F				mov ah, 01001111b 
 00B1  26: 89 05			mov es:[di], ax ;–≤—ã–≤–µ–¥–µ–º —ç—Ç—É 
				—Ü–∏—Ñ—Ä—É 
 00B4  83 EF 02				sub di, 2 
 00B7  80 C1 04				add cl, 4 
 00BA  80 F9 10				cmp cl, 16 
 00BD  75 D9				jne @dloop 
					 
					;–≤—ñ–¥–Ω–æ–≤–ª–µ–Ω–Ω—è —Ä–µ–≥—ñ—Å—Ç—Ä—
				ñ–≤ 
 00BF  61				popa 
 00C0  1F				pop 		ds 
 00C1  07				pop 		es 
 00C2  5F				pop 		di 
 00C3  CB				ret 
 00C4				prmaus	endp 
				 
 00C4				begin: 
 00C4  B8 ---- R			mov ax, data 
 00C7  8E D8				mov ds, ax 
				 
				;—ñ–Ω—ñ—Ü—ñ–∞–ª—ñ–∑–∞—Ü—ñ—è –º–∏—à—ñ 
 00C9  33 C0				xor 	ax, ax 
 00CB  CD 33				int 	33h 
				 
				 
 00CD  B8 000C				mov 	ax, 0ch	; –≤—Å—Ç–∞–Ω–æ–≤–∏—Ç–∏ 
				—Ä–µ–∂–∏–º –æ–±—Ä–æ–±–∫–∏ –ø–æ–¥—ñ–π –≤—ñ–¥ –º–
				∏—à–∫–∏ 
 00D0  B9 001F				mov		cx, 11111b ;–ª—é–±—ã–µ 
				—Å–æ–±—ã—Ç–∏—è. –í–æ–∑–º–æ–∂–Ω–æ, –Ω–∞–¥–æ 0001
				b 
 00D3  06				push 	es	;–∑–±–µ—Ä–µ–≥—Ç–∏ –≤–º—
				ñ—Å—Ç —Å–µ–≥–º–µ–Ω—Ç–Ω–æ–≥–æ —Ä–µ–≥—ñ—Å—Ç—Ä–∞  
 00D4  0E				push 	cs 
 00D5  07				pop 	es		; –≤–≤–∞–∂–∞—î–
				º, —â–æ –ø—Ä–æ—Ü–µ–¥—É—Ä–∞ –∫–æ—Ä–∏—Å—Ç—É–≤–∞—á
				–∞ 
									; –¥–ª—
				è –æ–±—Ä–æ–±–∫–∏ –ø–æ–¥—ñ–π –≤—ñ–¥ –º–∏—à–∫–∏ –
				∑–Ω–∞—Ö–æ–¥–∏—Ç—å—Å—è  
									;–≤ –ø–
				æ—Ç–æ—á–Ω–æ–º—É —Å–µ–≥–º–µ–Ω—Ç—ñ –∫–æ–¥—ñ–≤ 
 00D6  8D 16 0000 R			lea 	dx, prmaus; –≤—Å—Ç–∞–Ω–æ–≤–∏—Ç–
				∏ –∑–º—ñ—â–µ–Ω–Ω—è –ø—Ä–æ—Ü–µ–¥—É—Ä–∏ 
									
Microsoft (R) Macro Assembler Version 5.00                  3/30/16 11:26:36
                                                             Page     1-5


					;–æ–±—Ä–æ–±–∫–∏ –ø–æ–¥—ñ–π –≤—ñ–¥ –º–∏—
				à–∫–∏ –≤ —Å–µ–≥–º–µ–Ω—Ç—ñ –∫–æ–¥—ñ–≤ 
 00DA  CD 33				int 	33h		; —Ä–µ–≥—ñ—Å—Ç—
				Ä–∞—Ü—ñ—è –∞–¥—Ä–µ—Å–∏ —Ç–∞ —É–º–æ–≤ –≤–∏–∫–ª–∏
				–∫—É 
 00DC  07				pop 	es 
				 
				 
				;WRITE 
 00DD  B8 B800				mov ax, 0b800h 
 00E0  8E C0				mov es, ax 
				 
 00E2  BA 000F				mov dx, 15 
				 
 00E5  33 C0				xor ax, ax 
 00E7  8B F8				mov	di,ax ;1st string 
					 
				; —É–≤—ñ–º–∫–Ω—É—Ç–∏ –≥—Ä–∞—Ñ—ñ—á–Ω–∏–π —Ä–µ–∂–
				∏–º 
 00E9  B8 0003				mov	    ax, 3 
 00EC  CD 10				int 	10h 
				 
				;–≤–∏–≤–µ–¥–µ–Ω–Ω—è –º–∞—Å–∫–∏ "ax: " / "bx: / 
				"cx: "... 
 00EE  B2 61				mov dl, 'a' 
 00F0  B6 78			        mov dh, 'x' 
 00F2  B9 0004				mov cx, 4 
 00F5					@regloop: 
 00F5  26: 88 15				mov es:[di], dl 
 00F8  26: 88 75 02				mov es:[di+2], dh 
 00FC  FE C2					inc dl 
 00FE  81 C7 00A0				add di, (80*2) 
 0102  49					dec cx 
 0103  75 F0					jnz  @regloop 
						 
 0105  8B F8				 mov	di,ax ;1st string 
 0107  B9 0004				 mov cx, 4 
 010A					 @xloop: 
 010A  26: C6 45 02 78				 mov byte ptr es:[di+2], 'x' 
 010F  26: C6 45 04 3A				 mov byte ptr es:[di+4], ':' 
 0114  81 C7 00A0				 add di, (80*2) 
 0118  49					 dec cx 
 0119  75 EF					 jnz  @xloop 
				 
				 
 011B  B4 01				mov 	ah, 01h	; –≤–≤–µ—Å—Ç–∏ —Å–∏–º–≤
				–æ–ª –∑ –∫–ª–∞–≤—ñ–∞—Ç—É—Ä–∏ –ü–ï–û–ú	 
 011D  CD 21				int		21h		; –≤–∏–
				∫–ª–∏–∫ —Ñ—É–Ω–∫—Ü—ñ—ó DOS  
				 
 011F  33 C9				xor 	cx,cx 
 0121  B8 000C				mov		ax,0ch 
					;–≤–≤–∞–∂–∞—î–º–æ —â–æ —Ä–µ–≥—ñ—Å—Ç—Ä–∏
				 es:dx –º—ñ—Å—Ç—è—Ç—å –ª–æ–≥—ñ—á–Ω—É –∞–¥—Ä–µ—Å
Microsoft (R) Macro Assembler Version 5.00                  3/30/16 11:26:36
                                                             Page     1-6


				—É –ø—Ä–æ—Ü–µ–¥—É—Ä–∏ prmaus 
 0124  CD 33				int		33h		;–ø—Ä–æ
				—Ü–µ–¥—É—Ä–∞ prmaus 
									;–¥–∞–ª
				—ñ –≤–∏–∫–ª–∏–∫–∞—Ç–∏—Å—å –Ω–µ –±—É–¥–µ 
				 
 0126				code ends 
				 
				end begin 
Microsoft (R) Macro Assembler Version 5.00                  3/30/16 11:26:36
                                                             Symbols-1




                N a m e         	Size	Length	 Align	Combine Class

CODE . . . . . . . . . . . . . .  	16 Bit	0126	PARA	NONE	
DATA . . . . . . . . . . . . . .  	16 Bit	0004	PARA	NONE	

Symbols:            

                N a m e         	Type	 Value	 Attr

BEGIN  . . . . . . . . . . . . .  	L NEAR	00C4	CODE

PRMAUS . . . . . . . . . . . . .  	F PROC	0000	CODE	Length = 00C4

SAX  . . . . . . . . . . . . . .  	L WORD	0000	DATA
SCX  . . . . . . . . . . . . . .  	L WORD	0002	DATA

@ALOOP . . . . . . . . . . . . .  	L NEAR	0018	CODE
@BD  . . . . . . . . . . . . . .  	L NEAR	0057	CODE
@BLOOP . . . . . . . . . . . . .  	L NEAR	0043	CODE
@BOUT  . . . . . . . . . . . . .  	L NEAR	005A	CODE
@CD  . . . . . . . . . . . . . .  	L NEAR	0082	CODE
@CLOOP . . . . . . . . . . . . .  	L NEAR	006D	CODE
@COUT  . . . . . . . . . . . . .  	L NEAR	0085	CODE
@D . . . . . . . . . . . . . . .  	L NEAR	002D	CODE
@DD  . . . . . . . . . . . . . .  	L NEAR	00AC	CODE
@DLOOP . . . . . . . . . . . . .  	L NEAR	0098	CODE
@DOUT  . . . . . . . . . . . . .  	L NEAR	00AF	CODE
@FILENAME  . . . . . . . . . . .  	TEXT  ln		
@OUT . . . . . . . . . . . . . .  	L NEAR	0030	CODE
@REGLOOP . . . . . . . . . . . .  	L NEAR	00F5	CODE
@XLOOP . . . . . . . . . . . . .  	L NEAR	010A	CODE


    201 Source  Lines
    201 Total   Lines
     22 Symbols

  49526 + 434074 Bytes symbol space free

      1 Warning Errors
      0 Severe  Errors
