; Listing generated by Microsoft (R) Optimizing Compiler Version 17.00.60610.1 

	TITLE	D:\OOPLabs\Param\Param\Param.cpp
	.686P
	.XMM
	include listing.inc
	.model	flat

INCLUDELIB MSVCRTD
INCLUDELIB OLDNAMES

PUBLIC	?a@@3HA						; a
_BSS	SEGMENT
?a@@3HA	DD	01H DUP (?)				; a
_BSS	ENDS
PUBLIC	?val@@YAXH@Z					; val
PUBLIC	?ref@@YAXPAH@Z					; ref
PUBLIC	?add@@YAXAAH@Z					; add
PUBLIC	_main
EXTRN	__RTC_CheckEsp:PROC
EXTRN	__RTC_InitBase:PROC
EXTRN	__RTC_Shutdown:PROC
;	COMDAT rtc$TMZ
rtc$TMZ	SEGMENT
__RTC_Shutdown.rtc$TMZ DD FLAT:__RTC_Shutdown
rtc$TMZ	ENDS
;	COMDAT rtc$IMZ
rtc$IMZ	SEGMENT
__RTC_InitBase.rtc$IMZ DD FLAT:__RTC_InitBase
rtc$IMZ	ENDS
; Function compile flags: /Odtp /RTCsu /ZI
; File d:\ooplabs\param\param\param.cpp
;	COMDAT _main
_TEXT	SEGMENT
_main	PROC						; COMDAT

; 11   : int main(){

  00000	55		 push	 ebp
  00001	8b ec		 mov	 ebp, esp
  00003	81 ec c0 00 00
	00		 sub	 esp, 192		; 000000c0H
  00009	53		 push	 ebx
  0000a	56		 push	 esi
  0000b	57		 push	 edi
  0000c	8d bd 40 ff ff
	ff		 lea	 edi, DWORD PTR [ebp-192]
  00012	b9 30 00 00 00	 mov	 ecx, 48			; 00000030H
  00017	b8 cc cc cc cc	 mov	 eax, -858993460		; ccccccccH
  0001c	f3 ab		 rep stosd

; 12   : 	a = 0;

  0001e	c7 05 00 00 00
	00 00 00 00 00	 mov	 DWORD PTR ?a@@3HA, 0	; a

; 13   : 	val(a);

  00028	a1 00 00 00 00	 mov	 eax, DWORD PTR ?a@@3HA	; a
  0002d	50		 push	 eax
  0002e	e8 00 00 00 00	 call	 ?val@@YAXH@Z		; val
  00033	83 c4 04	 add	 esp, 4

; 14   : 	ref(&a);

  00036	68 00 00 00 00	 push	 OFFSET ?a@@3HA		; a
  0003b	e8 00 00 00 00	 call	 ?ref@@YAXPAH@Z		; ref
  00040	83 c4 04	 add	 esp, 4

; 15   : 	add(a);

  00043	68 00 00 00 00	 push	 OFFSET ?a@@3HA		; a
  00048	e8 00 00 00 00	 call	 ?add@@YAXAAH@Z		; add
  0004d	83 c4 04	 add	 esp, 4

; 16   : 	return 0;

  00050	33 c0		 xor	 eax, eax

; 17   : }

  00052	5f		 pop	 edi
  00053	5e		 pop	 esi
  00054	5b		 pop	 ebx
  00055	81 c4 c0 00 00
	00		 add	 esp, 192		; 000000c0H
  0005b	3b ec		 cmp	 ebp, esp
  0005d	e8 00 00 00 00	 call	 __RTC_CheckEsp
  00062	8b e5		 mov	 esp, ebp
  00064	5d		 pop	 ebp
  00065	c3		 ret	 0
_main	ENDP
_TEXT	ENDS
; Function compile flags: /Odtp /RTCsu /ZI
; File d:\ooplabs\param\param\param.cpp
;	COMDAT ?add@@YAXAAH@Z
_TEXT	SEGMENT
_add$ = 8						; size = 4
?add@@YAXAAH@Z PROC					; add, COMDAT

; 7    : void add (int &add){

  00000	55		 push	 ebp
  00001	8b ec		 mov	 ebp, esp
  00003	81 ec c0 00 00
	00		 sub	 esp, 192		; 000000c0H
  00009	53		 push	 ebx
  0000a	56		 push	 esi
  0000b	57		 push	 edi
  0000c	8d bd 40 ff ff
	ff		 lea	 edi, DWORD PTR [ebp-192]
  00012	b9 30 00 00 00	 mov	 ecx, 48			; 00000030H
  00017	b8 cc cc cc cc	 mov	 eax, -858993460		; ccccccccH
  0001c	f3 ab		 rep stosd

; 8    : 	 add = 1;

  0001e	8b 45 08	 mov	 eax, DWORD PTR _add$[ebp]
  00021	c7 00 01 00 00
	00		 mov	 DWORD PTR [eax], 1

; 9    : }

  00027	5f		 pop	 edi
  00028	5e		 pop	 esi
  00029	5b		 pop	 ebx
  0002a	8b e5		 mov	 esp, ebp
  0002c	5d		 pop	 ebp
  0002d	c3		 ret	 0
?add@@YAXAAH@Z ENDP					; add
_TEXT	ENDS
; Function compile flags: /Odtp /RTCsu /ZI
; File d:\ooplabs\param\param\param.cpp
;	COMDAT ?ref@@YAXPAH@Z
_TEXT	SEGMENT
_ref$ = 8						; size = 4
?ref@@YAXPAH@Z PROC					; ref, COMDAT

; 4    : void ref (int *ref){

  00000	55		 push	 ebp
  00001	8b ec		 mov	 ebp, esp
  00003	81 ec c0 00 00
	00		 sub	 esp, 192		; 000000c0H
  00009	53		 push	 ebx
  0000a	56		 push	 esi
  0000b	57		 push	 edi
  0000c	8d bd 40 ff ff
	ff		 lea	 edi, DWORD PTR [ebp-192]
  00012	b9 30 00 00 00	 mov	 ecx, 48			; 00000030H
  00017	b8 cc cc cc cc	 mov	 eax, -858993460		; ccccccccH
  0001c	f3 ab		 rep stosd

; 5    : 	*ref = 1;

  0001e	8b 45 08	 mov	 eax, DWORD PTR _ref$[ebp]
  00021	c7 00 01 00 00
	00		 mov	 DWORD PTR [eax], 1

; 6    : }

  00027	5f		 pop	 edi
  00028	5e		 pop	 esi
  00029	5b		 pop	 ebx
  0002a	8b e5		 mov	 esp, ebp
  0002c	5d		 pop	 ebp
  0002d	c3		 ret	 0
?ref@@YAXPAH@Z ENDP					; ref
_TEXT	ENDS
; Function compile flags: /Odtp /RTCsu /ZI
; File d:\ooplabs\param\param\param.cpp
;	COMDAT ?val@@YAXH@Z
_TEXT	SEGMENT
_val$ = 8						; size = 4
?val@@YAXH@Z PROC					; val, COMDAT

; 1    : void val (int val){

  00000	55		 push	 ebp
  00001	8b ec		 mov	 ebp, esp
  00003	81 ec c0 00 00
	00		 sub	 esp, 192		; 000000c0H
  00009	53		 push	 ebx
  0000a	56		 push	 esi
  0000b	57		 push	 edi
  0000c	8d bd 40 ff ff
	ff		 lea	 edi, DWORD PTR [ebp-192]
  00012	b9 30 00 00 00	 mov	 ecx, 48			; 00000030H
  00017	b8 cc cc cc cc	 mov	 eax, -858993460		; ccccccccH
  0001c	f3 ab		 rep stosd

; 2    : 	val = 1;

  0001e	c7 45 08 01 00
	00 00		 mov	 DWORD PTR _val$[ebp], 1

; 3    : }

  00025	5f		 pop	 edi
  00026	5e		 pop	 esi
  00027	5b		 pop	 ebx
  00028	8b e5		 mov	 esp, ebp
  0002a	5d		 pop	 ebp
  0002b	c3		 ret	 0
?val@@YAXH@Z ENDP					; val
_TEXT	ENDS
END
